; Function Attrs: nounwind uwtable
define ptr @l_Lake_initFn____x40_Lake_DSL_Attributes___hyg_4____lambda__1(ptr noundef %0, ptr noundef %1, ptr noundef %2, i8 noundef zeroext %3, ptr noundef %4, ptr noundef %5, ptr noundef %6) local_unnamed_addr #0 {
  %8 = load ptr, ptr @l_Lake_initFn____x40_Lake_DSL_Attributes___hyg_4____lambda__1___closed__3, align 8, !tbaa !4
  %9 = ptrtoint ptr %4 to i64
  %10 = and i64 %9, 1
  %.not = icmp eq i64 %10, 0
  br i1 %.not, label %11, label %lean_inc.exit23

11:                                               ; preds = %7
  %.val.i = load i32, ptr %4, align 4, !tbaa !8
  %12 = icmp sgt i32 %.val.i, 0
  br i1 %12, label %13, label %15, !prof !11

13:                                               ; preds = %11
  %14 = add nuw i32 %.val.i, 1
  store i32 %14, ptr %4, align 4, !tbaa !8
  br label %lean_inc.exit23

15:                                               ; preds = %11
  %.not.i27 = icmp eq i32 %.val.i, 0
  br i1 %.not.i27, label %lean_inc.exit23, label %16

16:                                               ; preds = %15
  tail call void @lean_inc_ref_cold(ptr noundef nonnull %4) #4
  br label %lean_inc.exit23

lean_inc.exit23:                                  ; preds = %16, %15, %13, %7
  %17 = tail call ptr @l_Lean_logAt___at_Lake_initFn____x40_Lake_DSL_Attributes___hyg_4____spec__1(ptr noundef %2, ptr noundef %8, i8 noundef zeroext 1, i8 noundef zeroext 0, ptr noundef %4, ptr noundef %5, ptr noundef %6)
  %18 = getelementptr inbounds nuw i8, ptr %17, i64 16
  %19 = load ptr, ptr %18, align 8, !tbaa !4
  %20 = ptrtoint ptr %19 to i64
  %21 = and i64 %20, 1
  %.not34 = icmp eq i64 %21, 0
  br i1 %.not34, label %22, label %lean_inc.exit22

22:                                               ; preds = %lean_inc.exit23
  %.val.i28 = load i32, ptr %19, align 4, !tbaa !8
  %23 = icmp sgt i32 %.val.i28, 0
  br i1 %23, label %24, label %26, !prof !11

24:                                               ; preds = %22
  %25 = add nuw i32 %.val.i28, 1
  store i32 %25, ptr %19, align 4, !tbaa !8
  br label %lean_inc.exit22

26:                                               ; preds = %22
  %.not.i29 = icmp eq i32 %.val.i28, 0
  br i1 %.not.i29, label %lean_inc.exit22, label %27

27:                                               ; preds = %26
  tail call void @lean_inc_ref_cold(ptr noundef nonnull %19) #4
  br label %lean_inc.exit22

lean_inc.exit22:                                  ; preds = %27, %26, %24, %lean_inc.exit23
  %28 = ptrtoint ptr %17 to i64
  %29 = and i64 %28, 1
  %.not35 = icmp eq i64 %29, 0
  br i1 %.not35, label %30, label %lean_dec.exit24

30:                                               ; preds = %lean_inc.exit22
  %31 = load i32, ptr %17, align 4, !tbaa !8
  %32 = icmp sgt i32 %31, 1
  br i1 %32, label %33, label %35, !prof !11

33:                                               ; preds = %30
  %34 = add nsw i32 %31, -1
  store i32 %34, ptr %17, align 4, !tbaa !8
  br label %lean_dec.exit24

35:                                               ; preds = %30
  %.not.i = icmp eq i32 %31, 0
  br i1 %.not.i, label %lean_dec.exit24, label %36

36:                                               ; preds = %35
  tail call void @lean_dec_ref_cold(ptr noundef nonnull %17) #4
  br label %lean_dec.exit24

lean_dec.exit24:                                  ; preds = %36, %35, %33, %lean_inc.exit22
  %37 = getelementptr inbounds nuw i8, ptr %0, i64 16
  %38 = load ptr, ptr %37, align 8, !tbaa !4
  %39 = ptrtoint ptr %38 to i64
  %40 = and i64 %39, 1
  %.not36 = icmp eq i64 %40, 0
  br i1 %.not36, label %41, label %lean_inc.exit

41:                                               ; preds = %lean_dec.exit24
  %.val.i31 = load i32, ptr %38, align 4, !tbaa !8
  %42 = icmp sgt i32 %.val.i31, 0
  br i1 %42, label %43, label %45, !prof !11

43:                                               ; preds = %41
  %44 = add nuw i32 %.val.i31, 1
  store i32 %44, ptr %38, align 4, !tbaa !8
  br label %lean_inc.exit

45:                                               ; preds = %41
  %.not.i32 = icmp eq i32 %.val.i31, 0
  br i1 %.not.i32, label %lean_inc.exit, label %46

46:                                               ; preds = %45
  tail call void @lean_inc_ref_cold(ptr noundef nonnull %38) #4
  br label %lean_inc.exit

lean_inc.exit:                                    ; preds = %46, %45, %43, %lean_dec.exit24
  %47 = ptrtoint ptr %0 to i64
  %48 = and i64 %47, 1
  %.not37 = icmp eq i64 %48, 0
  br i1 %.not37, label %49, label %lean_dec.exit

49:                                               ; preds = %lean_inc.exit
  %50 = load i32, ptr %0, align 4, !tbaa !8
  %51 = icmp sgt i32 %50, 1
  br i1 %51, label %52, label %54, !prof !11

52:                                               ; preds = %49
  %53 = add nsw i32 %50, -1
  store i32 %53, ptr %0, align 4, !tbaa !8
  br label %lean_dec.exit

54:                                               ; preds = %49
  %.not.i25 = icmp eq i32 %50, 0
  br i1 %.not.i25, label %lean_dec.exit, label %55

55:                                               ; preds = %54
  tail call void @lean_dec_ref_cold(ptr noundef nonnull %0) #4
  br label %lean_dec.exit

lean_dec.exit:                                    ; preds = %55, %54, %52, %lean_inc.exit
  %56 = zext i8 %3 to i64
  %57 = shl nuw nsw i64 %56, 1
  %58 = or disjoint i64 %57, 1
  %59 = inttoptr i64 %58 to ptr
  %60 = tail call ptr @lean_apply_6(ptr noundef %38, ptr noundef %1, ptr noundef %2, ptr noundef nonnull %59, ptr noundef %4, ptr noundef %5, ptr noundef %19) #4
  ret ptr %60
}